target datalayout = "e-m:e-p270:32:32-p271:32:32-p272:64:64-i64:64-i128:128-f80:128-n8:16:32:64-S128"
target triple = "x86_64-pc-linux-gnu"

%struct.lxb_html_token_t = type { ptr, ptr, i64, i64, ptr, ptr, ptr, ptr, ptr, i64, i64, i32 }
%struct.lexbor_str_t = type { ptr, i64 }

@lexbor_str_res_ansi_replacement_character = internal constant [4 x i8] c"\EF\BF\BD\00", align 1

; Function Attrs: nounwind uwtable
define hidden i32 @lxb_html_token_make_text_replace_null(ptr noundef %0, ptr noundef %1, ptr noundef %2) #0 {
  %4 = alloca i32, align 4
  %5 = alloca ptr, align 8
  %6 = alloca ptr, align 8
  %7 = alloca ptr, align 8
  %8 = alloca ptr, align 8
  %9 = alloca i8, align 1
  %10 = alloca ptr, align 8
  %11 = alloca ptr, align 8
  %12 = alloca i64, align 8
  store ptr %0, ptr %5, align 8
  store ptr %1, ptr %6, align 8
  store ptr %2, ptr %7, align 8
  %13 = load ptr, ptr %5, align 8
  %14 = getelementptr inbounds %struct.lxb_html_token_t, ptr %13, i32 0, i32 4
  %15 = load ptr, ptr %14, align 8
  store ptr %15, ptr %10, align 8
  %16 = load ptr, ptr %5, align 8
  %17 = getelementptr inbounds %struct.lxb_html_token_t, ptr %16, i32 0, i32 5
  %18 = load ptr, ptr %17, align 8
  store ptr %18, ptr %11, align 8
  %19 = load ptr, ptr %11, align 8
  %20 = load ptr, ptr %10, align 8
  %21 = ptrtoint ptr %19 to i64
  %22 = ptrtoint ptr %20 to i64
  %23 = sub i64 %21, %22
  %24 = load ptr, ptr %5, align 8
  %25 = getelementptr inbounds %struct.lxb_html_token_t, ptr %24, i32 0, i32 9
  %26 = load i64, ptr %25, align 8
  %27 = mul i64 %26, 3
  %28 = add i64 %23, %27
  %29 = load ptr, ptr %5, align 8
  %30 = getelementptr inbounds %struct.lxb_html_token_t, ptr %29, i32 0, i32 9
  %31 = load i64, ptr %30, align 8
  %32 = sub i64 %28, %31
  store i64 %32, ptr %12, align 8
  %33 = load ptr, ptr %6, align 8
  %34 = load ptr, ptr %7, align 8
  %35 = load i64, ptr %12, align 8
  %36 = call ptr @lexbor_str_init(ptr noundef %33, ptr noundef %34, i64 noundef %35)
  %37 = load ptr, ptr %6, align 8
  %38 = getelementptr inbounds %struct.lexbor_str_t, ptr %37, i32 0, i32 0
  %39 = load ptr, ptr %38, align 8
  %40 = icmp eq ptr %39, null
  br i1 %40, label %41, label %42

41:                                               ; preds = %3
  store i32 2, ptr %4, align 4
  br label %74

42:                                               ; preds = %3
  %43 = load ptr, ptr %6, align 8
  %44 = getelementptr inbounds %struct.lexbor_str_t, ptr %43, i32 0, i32 0
  %45 = load ptr, ptr %44, align 8
  store ptr %45, ptr %8, align 8
  br label %46

46:                                               ; preds = %61, %57, %42
  %47 = load ptr, ptr %10, align 8
  %48 = load ptr, ptr %11, align 8
  %49 = icmp ult ptr %47, %48
  br i1 %49, label %50, label %65

50:                                               ; preds = %46
  %51 = load ptr, ptr %10, align 8
  %52 = getelementptr inbounds i8, ptr %51, i32 1
  store ptr %52, ptr %10, align 8
  %53 = load i8, ptr %51, align 1
  store i8 %53, ptr %9, align 1
  %54 = load i8, ptr %9, align 1
  %55 = zext i8 %54 to i32
  %56 = icmp eq i32 %55, 0
  br i1 %56, label %57, label %61

57:                                               ; preds = %50
  %58 = load ptr, ptr %8, align 8
  call void @llvm.memcpy.p0.p0.i64(ptr align 1 %58, ptr align 1 @lexbor_str_res_ansi_replacement_character, i64 3, i1 false)
  %59 = load ptr, ptr %8, align 8
  %60 = getelementptr inbounds i8, ptr %59, i64 3
  store ptr %60, ptr %8, align 8
  br label %46

61:                                               ; preds = %50
  %62 = load i8, ptr %9, align 1
  %63 = load ptr, ptr %8, align 8
  %64 = getelementptr inbounds i8, ptr %63, i32 1
  store ptr %64, ptr %8, align 8
  store i8 %62, ptr %63, align 1
  br label %46

65:                                               ; preds = %46
  %66 = load ptr, ptr %6, align 8
  %67 = getelementptr inbounds %struct.lexbor_str_t, ptr %66, i32 0, i32 0
  %68 = load ptr, ptr %67, align 8
  %69 = load i64, ptr %12, align 8
  %70 = getelementptr inbounds i8, ptr %68, i64 %69
  store i8 0, ptr %70, align 1
  %71 = load i64, ptr %12, align 8
  %72 = load ptr, ptr %6, align 8
  %73 = getelementptr inbounds %struct.lexbor_str_t, ptr %72, i32 0, i32 1
  store i64 %71, ptr %73, align 8
  store i32 0, ptr %4, align 4
  br label %74

74:                                               ; preds = %65, %41
  %75 = load i32, ptr %4, align 4
  ret i32 %75
}