; Function Attrs: nounwind uwtable
define hidden noundef i32 @lxb_html_token_make_text_replace_null(ptr nocapture noundef readonly %0, ptr noundef %1, ptr noundef %2) local_unnamed_addr #0 {
  %4 = getelementptr inbounds i8, ptr %0, i64 32
  %5 = load ptr, ptr %4, align 8
  %6 = ptrtoint ptr %5 to i64
  %7 = getelementptr inbounds i8, ptr %0, i64 40
  %8 = load ptr, ptr %7, align 8
  %9 = ptrtoint ptr %8 to i64
  %10 = getelementptr inbounds i8, ptr %0, i64 72
  %11 = load i64, ptr %10, align 8
  %12 = mul i64 %11, 3
  %13 = add i64 %11, %6
  %14 = sub i64 %9, %13
  %15 = add i64 %14, %12
  %16 = tail call ptr @lexbor_str_init(ptr noundef %1, ptr noundef %2, i64 noundef %15) #8
  %17 = load ptr, ptr %1, align 8
  %18 = icmp eq ptr %17, null
  br i1 %18, label %30, label %.preheader

.preheader:                                       ; preds = %3
  %19 = icmp ult ptr %5, %8
  br i1 %19, label %.lr.ph, label %._crit_edge

.lr.ph:                                           ; preds = %.preheader, %.backedge
  %.02329 = phi ptr [ %.023.be, %.backedge ], [ %17, %.preheader ]
  %.02428 = phi ptr [ %20, %.backedge ], [ %5, %.preheader ]
  %20 = getelementptr inbounds i8, ptr %.02428, i64 1
  %21 = load i8, ptr %.02428, align 1
  %22 = icmp eq i8 %21, 0
  br i1 %22, label %23, label %25

23:                                               ; preds = %.lr.ph
  tail call void @llvm.memcpy.p0.p0.i64(ptr noundef nonnull align 1 dereferenceable(3) %.02329, ptr noundef nonnull align 1 dereferenceable(3) @lexbor_str_res_ansi_replacement_character, i64 3, i1 false)
  %24 = getelementptr inbounds i8, ptr %.02329, i64 3
  br label %.backedge

.backedge:                                        ; preds = %23, %25
  %.023.be = phi ptr [ %24, %23 ], [ %26, %25 ]
  %exitcond.not = icmp eq ptr %20, %8
  br i1 %exitcond.not, label %._crit_edge.loopexit, label %.lr.ph

25:                                               ; preds = %.lr.ph
  %26 = getelementptr inbounds i8, ptr %.02329, i64 1
  store i8 %21, ptr %.02329, align 1
  br label %.backedge

._crit_edge.loopexit:                             ; preds = %.backedge
  %.pre = load ptr, ptr %1, align 8
  br label %._crit_edge

._crit_edge:                                      ; preds = %._crit_edge.loopexit, %.preheader
  %27 = phi ptr [ %.pre, %._crit_edge.loopexit ], [ %17, %.preheader ]
  %28 = getelementptr inbounds i8, ptr %27, i64 %15
  store i8 0, ptr %28, align 1
  %29 = getelementptr inbounds i8, ptr %1, i64 8
  store i64 %15, ptr %29, align 8
  br label %30

30:                                               ; preds = %3, %._crit_edge
  %.0 = phi i32 [ 0, %._crit_edge ], [ 2, %3 ]
  ret i32 %.0
}